target datalayout = "e-m:e-p270:32:32-p271:32:32-p272:64:64-i64:64-i128:128-f80:128-n8:16:32:64-S128"
target triple = "x86_64-pc-linux-gnu"

%struct._lv_anim_t = type { ptr, ptr, ptr, ptr, ptr, ptr, ptr, ptr, ptr, i32, i32, i32, i32, i32, i32, i32, i32, i32, %union._lv_anim_path_para_t, i32, i32, i32, i8 }
%union._lv_anim_path_para_t = type { %struct.lv_anim_bezier3_para_t }
%struct.lv_anim_bezier3_para_t = type { i16, i16, i16, i16 }

; Function Attrs: nounwind uwtable
define void @lv_obj_delete_delayed(ptr noundef %0, i32 noundef %1) #0 {
  %3 = alloca ptr, align 8
  %4 = alloca i32, align 4
  %5 = alloca %struct._lv_anim_t, align 8
  store ptr %0, ptr %3, align 8, !tbaa !3
  store i32 %1, ptr %4, align 4, !tbaa !37
  call void @llvm.lifetime.start.p0(i64 136, ptr %5) #3
  call void @lv_anim_init(ptr noundef %5)
  %6 = load ptr, ptr %3, align 8, !tbaa !3
  call void @lv_anim_set_var(ptr noundef %5, ptr noundef %6)
  call void @lv_anim_set_exec_cb(ptr noundef %5, ptr noundef null)
  call void @lv_anim_set_duration(ptr noundef %5, i32 noundef 1)
  %7 = load i32, ptr %4, align 4, !tbaa !37
  call void @lv_anim_set_delay(ptr noundef %5, i32 noundef %7)
  call void @lv_anim_set_completed_cb(ptr noundef %5, ptr noundef @lv_obj_delete_anim_completed_cb)
  %8 = call ptr @lv_anim_start(ptr noundef %5)
  call void @llvm.lifetime.end.p0(i64 136, ptr %5) #3
  ret void
}