; Function Attrs: nounwind uwtable
define void @lv_obj_delete_delayed(ptr noundef %0, i32 noundef %1) local_unnamed_addr #0 {
  %3 = alloca %struct._lv_anim_t, align 8
  call void @llvm.lifetime.start.p0(i64 136, ptr nonnull %3) #6
  call void @lv_anim_init(ptr noundef nonnull %3) #6
  call void @lv_anim_set_var(ptr noundef nonnull %3, ptr noundef %0) #6
  call void @lv_anim_set_exec_cb(ptr noundef nonnull %3, ptr noundef null) #6
  call void @lv_anim_set_duration(ptr noundef nonnull %3, i32 noundef 1) #6
  call void @lv_anim_set_delay(ptr noundef nonnull %3, i32 noundef %1) #6
  call void @lv_anim_set_completed_cb(ptr noundef nonnull %3, ptr noundef nonnull @lv_obj_delete_anim_completed_cb) #6
  %4 = call ptr @lv_anim_start(ptr noundef nonnull %3) #6
  call void @llvm.lifetime.end.p0(i64 136, ptr nonnull %3) #6
  ret void
}